target datalayout = "e-m:e-p270:32:32-p271:32:32-p272:64:64-i64:64-i128:128-f80:128-n8:16:32:64-S128"
target triple = "x86_64-pc-linux-gnu"

@hf_fcs_reason = internal global i32 0, align 4
@hf_fcs_rjtdetail = internal global i32 0, align 4
@hf_fcs_vendor = internal global i32 0, align 4

; Function Attrs: nounwind uwtable
define internal void @dissect_fcfcs_rjt(ptr noundef %0, ptr noundef %1) #0 {
  %3 = alloca ptr, align 8
  %4 = alloca ptr, align 8
  %5 = alloca i32, align 4
  store ptr %0, ptr %3, align 8
  store ptr %1, ptr %4, align 8
  store i32 0, ptr %5, align 4
  %6 = load ptr, ptr %4, align 8
  %7 = icmp ne ptr %6, null
  br i1 %7, label %8, label %27

8:                                                ; preds = %2
  %9 = load ptr, ptr %4, align 8
  %10 = load i32, ptr @hf_fcs_reason, align 4
  %11 = load ptr, ptr %3, align 8
  %12 = load i32, ptr %5, align 4
  %13 = add i32 %12, 13
  %14 = call ptr @proto_tree_add_item(ptr noundef %9, i32 noundef %10, ptr noundef %11, i32 noundef %13, i32 noundef 1, i32 noundef 0)
  %15 = load ptr, ptr %4, align 8
  %16 = load i32, ptr @hf_fcs_rjtdetail, align 4
  %17 = load ptr, ptr %3, align 8
  %18 = load i32, ptr %5, align 4
  %19 = add i32 %18, 14
  %20 = call ptr @proto_tree_add_item(ptr noundef %15, i32 noundef %16, ptr noundef %17, i32 noundef %19, i32 noundef 1, i32 noundef 0)
  %21 = load ptr, ptr %4, align 8
  %22 = load i32, ptr @hf_fcs_vendor, align 4
  %23 = load ptr, ptr %3, align 8
  %24 = load i32, ptr %5, align 4
  %25 = add i32 %24, 15
  %26 = call ptr @proto_tree_add_item(ptr noundef %21, i32 noundef %22, ptr noundef %23, i32 noundef %25, i32 noundef 1, i32 noundef 0)
  br label %27

27:                                               ; preds = %8, %2
  ret void
}