; Function Attrs: nounwind uwtable
define internal fastcc void @dissect_fcfcs_rjt(ptr noundef %0, ptr noundef %1) unnamed_addr #0 {
  %.not = icmp eq ptr %1, null
  br i1 %.not, label %10, label %3

3:                                                ; preds = %2
  %4 = load i32, ptr @hf_fcs_reason, align 4
  %5 = tail call ptr @proto_tree_add_item(ptr noundef nonnull %1, i32 noundef %4, ptr noundef %0, i32 noundef 13, i32 noundef 1, i32 noundef 0) #4
  %6 = load i32, ptr @hf_fcs_rjtdetail, align 4
  %7 = tail call ptr @proto_tree_add_item(ptr noundef nonnull %1, i32 noundef %6, ptr noundef %0, i32 noundef 14, i32 noundef 1, i32 noundef 0) #4
  %8 = load i32, ptr @hf_fcs_vendor, align 4
  %9 = tail call ptr @proto_tree_add_item(ptr noundef nonnull %1, i32 noundef %8, ptr noundef %0, i32 noundef 15, i32 noundef 1, i32 noundef 0) #4
  br label %10

10:                                               ; preds = %3, %2
  ret void
}